target datalayout = "e-m:e-p270:32:32-p271:32:32-p272:64:64-i64:64-i128:128-f80:128-n8:16:32:64-S128"
target triple = "x86_64-pc-linux-gnu"

%struct.AVCodecContext = type { ptr, i32, i32, ptr, i32, i32, ptr, ptr, ptr, i64, i32, i32, ptr, i32, %struct.AVRational, %struct.AVRational, %struct.AVRational, i32, i32, i32, i32, i32, %struct.AVRational, i32, i32, i32, i32, i32, i32, i32, i32, i32, i32, i32, ptr, ptr, i32, float, float, float, float, float, float, float, float, float, i32, i32, i32, i32, i32, i32, i32, i32, i32, i32, i32, i32, ptr, ptr, ptr, i32, i32, i32, i32, i32, i32, i32, i32, i32, i32, %struct.AVChannelLayout, i32, i32, i32, i32, i32, i32, i32, i32, ptr, i32, i32, i32, float, float, i32, i32, i32, i32, i32, ptr, i64, i64, float, float, i32, i32, ptr, ptr, i32, i32, i32, i32, i32, ptr, ptr, ptr, ptr, i32, i32, [8 x i64], i32, i32, i32, i32, i32, i32, i32, ptr, ptr, i32, i32, i32, i32, i32, i32, i32, i32, i32, i32, ptr, ptr, i32, i32, ptr, ptr, ptr, ptr, i32, i32, i64, i32, i32, i64, ptr, i64, ptr, i32, ptr, i32 }
%struct.AVRational = type { i32, i32 }
%struct.AVChannelLayout = type { i32, i32, %union.anon.1, ptr }
%union.anon.1 = type { i64 }
%struct.FFHWBaseEncodeContext = type { ptr, ptr, ptr, i32, i32, i32, i32, i32, i32, ptr, ptr, ptr, ptr, ptr, ptr, ptr, ptr, [2 x ptr], i32, i64, i64, i64, i64, i64, i64, i64, [112 x i64], i32, i32, i32, i32, i32, i32, i32, i32, i32, i32, i32, i32, i32, i32, i32, i32, ptr, i32, ptr, i32, ptr }
%struct.AVHWFramesContext = type { ptr, ptr, ptr, ptr, ptr, ptr, ptr, i32, i32, i32, i32, i32 }
%struct.AVPixFmtDescriptor = type { ptr, i8, i8, i8, i64, [4 x %struct.AVComponentDescriptor], ptr }
%struct.AVComponentDescriptor = type { i32, i32, i32, i32, i32 }

@.str.22 = private unnamed_addr constant [30 x i8] c"Assertion %s failed at %s:%d\0A\00", align 1
@.str.23 = private unnamed_addr constant [5 x i8] c"desc\00", align 1
@.str.24 = private unnamed_addr constant [32 x i8] c"libavcodec/vaapi_encode_mjpeg.c\00", align 1

; Function Attrs: cold nounwind optsize uwtable
define internal i32 @vaapi_encode_mjpeg_get_encoder_caps(ptr noundef %0) #0 {
  %2 = alloca ptr, align 8
  %3 = alloca ptr, align 8
  %4 = alloca ptr, align 8
  store ptr %0, ptr %2, align 8, !tbaa !4
  call void @llvm.lifetime.start.p0(i64 8, ptr %3) #9
  %5 = load ptr, ptr %2, align 8, !tbaa !4
  %6 = getelementptr inbounds nuw %struct.AVCodecContext, ptr %5, i32 0, i32 6
  %7 = load ptr, ptr %6, align 8, !tbaa !9
  store ptr %7, ptr %3, align 8, !tbaa !54
  call void @llvm.lifetime.start.p0(i64 8, ptr %4) #9
  %8 = load ptr, ptr %3, align 8, !tbaa !54
  %9 = getelementptr inbounds nuw %struct.FFHWBaseEncodeContext, ptr %8, i32 0, i32 12
  %10 = load ptr, ptr %9, align 8, !tbaa !56
  %11 = getelementptr inbounds nuw %struct.AVHWFramesContext, ptr %10, i32 0, i32 9
  %12 = load i32, ptr %11, align 8, !tbaa !57
  %13 = call ptr @av_pix_fmt_desc_get(i32 noundef %12)
  store ptr %13, ptr %4, align 8, !tbaa !60
  br label %14

14:                                               ; preds = %1
  %15 = load ptr, ptr %4, align 8, !tbaa !60
  %16 = icmp ne ptr %15, null
  br i1 %16, label %18, label %17

17:                                               ; preds = %14
  call void (ptr, i32, ptr, ...) @av_log(ptr noundef null, i32 noundef 0, ptr noundef @.str.22, ptr noundef @.str.23, ptr noundef @.str.24, i32 noundef 445)
  call void @abort() #10
  unreachable

18:                                               ; preds = %14
  br label %19

19:                                               ; preds = %18
  br label %20

20:                                               ; preds = %19
  %21 = load ptr, ptr %2, align 8, !tbaa !4
  %22 = getelementptr inbounds nuw %struct.AVCodecContext, ptr %21, i32 0, i32 18
  %23 = load i32, ptr %22, align 8, !tbaa !62
  %24 = load ptr, ptr %4, align 8, !tbaa !60
  %25 = getelementptr inbounds nuw %struct.AVPixFmtDescriptor, ptr %24, i32 0, i32 2
  %26 = load i8, ptr %25, align 1, !tbaa !63
  %27 = zext i8 %26 to i32
  %28 = shl i32 8, %27
  %29 = add nsw i32 %23, %28
  %30 = sub nsw i32 %29, 1
  %31 = load ptr, ptr %4, align 8, !tbaa !60
  %32 = getelementptr inbounds nuw %struct.AVPixFmtDescriptor, ptr %31, i32 0, i32 2
  %33 = load i8, ptr %32, align 1, !tbaa !63
  %34 = zext i8 %33 to i32
  %35 = shl i32 8, %34
  %36 = sub nsw i32 %35, 1
  %37 = xor i32 %36, -1
  %38 = and i32 %30, %37
  %39 = load ptr, ptr %3, align 8, !tbaa !54
  %40 = getelementptr inbounds nuw %struct.FFHWBaseEncodeContext, ptr %39, i32 0, i32 5
  store i32 %38, ptr %40, align 8, !tbaa !65
  %41 = load ptr, ptr %2, align 8, !tbaa !4
  %42 = getelementptr inbounds nuw %struct.AVCodecContext, ptr %41, i32 0, i32 19
  %43 = load i32, ptr %42, align 4, !tbaa !66
  %44 = load ptr, ptr %4, align 8, !tbaa !60
  %45 = getelementptr inbounds nuw %struct.AVPixFmtDescriptor, ptr %44, i32 0, i32 3
  %46 = load i8, ptr %45, align 2, !tbaa !67
  %47 = zext i8 %46 to i32
  %48 = shl i32 8, %47
  %49 = add nsw i32 %43, %48
  %50 = sub nsw i32 %49, 1
  %51 = load ptr, ptr %4, align 8, !tbaa !60
  %52 = getelementptr inbounds nuw %struct.AVPixFmtDescriptor, ptr %51, i32 0, i32 3
  %53 = load i8, ptr %52, align 2, !tbaa !67
  %54 = zext i8 %53 to i32
  %55 = shl i32 8, %54
  %56 = sub nsw i32 %55, 1
  %57 = xor i32 %56, -1
  %58 = and i32 %50, %57
  %59 = load ptr, ptr %3, align 8, !tbaa !54
  %60 = getelementptr inbounds nuw %struct.FFHWBaseEncodeContext, ptr %59, i32 0, i32 6
  store i32 %58, ptr %60, align 4, !tbaa !68
  call void @llvm.lifetime.end.p0(i64 8, ptr %4) #9
  call void @llvm.lifetime.end.p0(i64 8, ptr %3) #9
  ret i32 0
}