; Function Attrs: cold nounwind optsize uwtable
define internal noundef i32 @vaapi_encode_mjpeg_get_encoder_caps(ptr noundef readonly captures(none) %0) #0 {
  %2 = getelementptr inbounds nuw i8, ptr %0, i64 32
  %3 = load ptr, ptr %2, align 8, !tbaa !4
  %4 = getelementptr inbounds nuw i8, ptr %3, i64 72
  %5 = load ptr, ptr %4, align 8, !tbaa !48
  %6 = getelementptr inbounds nuw i8, ptr %5, i64 64
  %7 = load i32, ptr %6, align 8, !tbaa !49
  %8 = tail call ptr @av_pix_fmt_desc_get(i32 noundef %7) #9
  %.not = icmp eq ptr %8, null
  br i1 %.not, label %9, label %10

9:                                                ; preds = %1
  tail call void (ptr, i32, ptr, ...) @av_log(ptr noundef null, i32 noundef 0, ptr noundef nonnull @.str.22, ptr noundef nonnull @.str.23, ptr noundef nonnull @.str.24, i32 noundef 445) #9
  tail call void @abort() #10
  unreachable

10:                                               ; preds = %1
  %11 = getelementptr inbounds nuw i8, ptr %0, i64 112
  %12 = load i32, ptr %11, align 8, !tbaa !52
  %13 = getelementptr inbounds nuw i8, ptr %8, i64 9
  %14 = load i8, ptr %13, align 1, !tbaa !53
  %15 = zext nneg i8 %14 to i32
  %16 = shl i32 8, %15
  %17 = add i32 %12, -1
  %18 = add i32 %17, %16
  %19 = sub i32 0, %16
  %20 = and i32 %18, %19
  %21 = getelementptr inbounds nuw i8, ptr %3, i64 32
  store i32 %20, ptr %21, align 8, !tbaa !55
  %22 = getelementptr inbounds nuw i8, ptr %0, i64 116
  %23 = load i32, ptr %22, align 4, !tbaa !56
  %24 = getelementptr inbounds nuw i8, ptr %8, i64 10
  %25 = load i8, ptr %24, align 2, !tbaa !57
  %26 = zext nneg i8 %25 to i32
  %27 = shl i32 8, %26
  %28 = add i32 %23, -1
  %29 = add i32 %28, %27
  %30 = sub i32 0, %27
  %31 = and i32 %29, %30
  %32 = getelementptr inbounds nuw i8, ptr %3, i64 36
  store i32 %31, ptr %32, align 4, !tbaa !58
  ret i32 0
}